; ModuleID = '9/18.c'
source_filename = "9/18.c"
target datalayout = "e-m:e-p270:32:32-p271:32:32-p272:64:64-i64:64-f80:128-n8:16:32:64-S128"
target triple = "x86_64-pc-linux-gnu"

%struct.m = type { [10 x i8], i32 }

@.str = private unnamed_addr constant [3 x i8] c"%d\00", align 1
@.str.1 = private unnamed_addr constant [5 x i8] c"%s%d\00", align 1
@.str.2 = private unnamed_addr constant [4 x i8] c"%s\0A\00", align 1

; Function Attrs: noinline nounwind uwtable
define dso_local i32 @main() #0 {
  %1 = alloca i32, align 4
  %2 = alloca [100 x %struct.m], align 16
  %3 = alloca [100 x %struct.m], align 16
  %4 = alloca %struct.m, align 4
  %5 = alloca i32, align 4
  %6 = alloca i32, align 4
  %7 = alloca i32, align 4
  %8 = alloca i32, align 4
  store i32 0, i32* %1, align 4
  store i32 0, i32* %8, align 4
  %9 = call i32 (i8*, ...) @__isoc99_scanf(i8* getelementptr inbounds ([3 x i8], [3 x i8]* @.str, i64 0, i64 0), i32* %5)
  store i32 0, i32* %6, align 4
  br label %10

10:                                               ; preds = %47, %0
  %11 = load i32, i32* %6, align 4
  %12 = load i32, i32* %5, align 4
  %13 = icmp slt i32 %11, %12
  br i1 %13, label %14, label %50

14:                                               ; preds = %10
  %15 = load i32, i32* %6, align 4
  %16 = sext i32 %15 to i64
  %17 = getelementptr inbounds [100 x %struct.m], [100 x %struct.m]* %2, i64 0, i64 %16
  %18 = getelementptr inbounds %struct.m, %struct.m* %17, i32 0, i32 0
  %19 = getelementptr inbounds [10 x i8], [10 x i8]* %18, i64 0, i64 0
  %20 = load i32, i32* %6, align 4
  %21 = sext i32 %20 to i64
  %22 = getelementptr inbounds [100 x %struct.m], [100 x %struct.m]* %2, i64 0, i64 %21
  %23 = getelementptr inbounds %struct.m, %struct.m* %22, i32 0, i32 1
  %24 = call i32 (i8*, ...) @__isoc99_scanf(i8* getelementptr inbounds ([5 x i8], [5 x i8]* @.str.1, i64 0, i64 0), i8* %19, i32* %23)
  %25 = load i32, i32* %6, align 4
  %26 = sext i32 %25 to i64
  %27 = getelementptr inbounds [100 x %struct.m], [100 x %struct.m]* %2, i64 0, i64 %26
  %28 = getelementptr inbounds %struct.m, %struct.m* %27, i32 0, i32 1
  %29 = load i32, i32* %28, align 4
  %30 = icmp sge i32 %29, 60
  br i1 %30, label %31, label %46

31:                                               ; preds = %14
  %32 = load i32, i32* %8, align 4
  %33 = sext i32 %32 to i64
  %34 = getelementptr inbounds [100 x %struct.m], [100 x %struct.m]* %3, i64 0, i64 %33
  %35 = load i32, i32* %6, align 4
  %36 = sext i32 %35 to i64
  %37 = getelementptr inbounds [100 x %struct.m], [100 x %struct.m]* %2, i64 0, i64 %36
  %38 = bitcast %struct.m* %34 to i8*
  %39 = bitcast %struct.m* %37 to i8*
  call void @llvm.memcpy.p0i8.p0i8.i64(i8* align 16 %38, i8* align 16 %39, i64 16, i1 false)
  %40 = load i32, i32* %8, align 4
  %41 = add nsw i32 %40, 1
  store i32 %41, i32* %8, align 4
  %42 = load i32, i32* %6, align 4
  %43 = sext i32 %42 to i64
  %44 = getelementptr inbounds [100 x %struct.m], [100 x %struct.m]* %2, i64 0, i64 %43
  %45 = getelementptr inbounds %struct.m, %struct.m* %44, i32 0, i32 1
  store i32 0, i32* %45, align 4
  br label %46

46:                                               ; preds = %31, %14
  br label %47

47:                                               ; preds = %46
  %48 = load i32, i32* %6, align 4
  %49 = add nsw i32 %48, 1
  store i32 %49, i32* %6, align 4
  br label %10

50:                                               ; preds = %10
  store i32 0, i32* %6, align 4
  br label %51

51:                                               ; preds = %101, %50
  %52 = load i32, i32* %6, align 4
  %53 = load i32, i32* %8, align 4
  %54 = icmp slt i32 %52, %53
  br i1 %54, label %55, label %104

55:                                               ; preds = %51
  %56 = load i32, i32* %8, align 4
  %57 = sub nsw i32 %56, 1
  store i32 %57, i32* %7, align 4
  br label %58

58:                                               ; preds = %97, %55
  %59 = load i32, i32* %7, align 4
  %60 = load i32, i32* %6, align 4
  %61 = icmp sgt i32 %59, %60
  br i1 %61, label %62, label %100

62:                                               ; preds = %58
  %63 = load i32, i32* %7, align 4
  %64 = sext i32 %63 to i64
  %65 = getelementptr inbounds [100 x %struct.m], [100 x %struct.m]* %3, i64 0, i64 %64
  %66 = getelementptr inbounds %struct.m, %struct.m* %65, i32 0, i32 1
  %67 = load i32, i32* %66, align 4
  %68 = load i32, i32* %7, align 4
  %69 = sub nsw i32 %68, 1
  %70 = sext i32 %69 to i64
  %71 = getelementptr inbounds [100 x %struct.m], [100 x %struct.m]* %3, i64 0, i64 %70
  %72 = getelementptr inbounds %struct.m, %struct.m* %71, i32 0, i32 1
  %73 = load i32, i32* %72, align 4
  %74 = icmp sgt i32 %67, %73
  br i1 %74, label %75, label %96

75:                                               ; preds = %62
  %76 = load i32, i32* %7, align 4
  %77 = sub nsw i32 %76, 1
  %78 = sext i32 %77 to i64
  %79 = getelementptr inbounds [100 x %struct.m], [100 x %struct.m]* %3, i64 0, i64 %78
  %80 = bitcast %struct.m* %4 to i8*
  %81 = bitcast %struct.m* %79 to i8*
  call void @llvm.memcpy.p0i8.p0i8.i64(i8* align 4 %80, i8* align 16 %81, i64 16, i1 false)
  %82 = load i32, i32* %7, align 4
  %83 = sub nsw i32 %82, 1
  %84 = sext i32 %83 to i64
  %85 = getelementptr inbounds [100 x %struct.m], [100 x %struct.m]* %3, i64 0, i64 %84
  %86 = load i32, i32* %7, align 4
  %87 = sext i32 %86 to i64
  %88 = getelementptr inbounds [100 x %struct.m], [100 x %struct.m]* %3, i64 0, i64 %87
  %89 = bitcast %struct.m* %85 to i8*
  %90 = bitcast %struct.m* %88 to i8*
  call void @llvm.memcpy.p0i8.p0i8.i64(i8* align 16 %89, i8* align 16 %90, i64 16, i1 false)
  %91 = load i32, i32* %7, align 4
  %92 = sext i32 %91 to i64
  %93 = getelementptr inbounds [100 x %struct.m], [100 x %struct.m]* %3, i64 0, i64 %92
  %94 = bitcast %struct.m* %93 to i8*
  %95 = bitcast %struct.m* %4 to i8*
  call void @llvm.memcpy.p0i8.p0i8.i64(i8* align 16 %94, i8* align 4 %95, i64 16, i1 false)
  br label %96

96:                                               ; preds = %75, %62
  br label %97

97:                                               ; preds = %96
  %98 = load i32, i32* %7, align 4
  %99 = add nsw i32 %98, -1
  store i32 %99, i32* %7, align 4
  br label %58

100:                                              ; preds = %58
  br label %101

101:                                              ; preds = %100
  %102 = load i32, i32* %6, align 4
  %103 = add nsw i32 %102, 1
  store i32 %103, i32* %6, align 4
  br label %51

104:                                              ; preds = %51
  store i32 0, i32* %6, align 4
  br label %105

105:                                              ; preds = %116, %104
  %106 = load i32, i32* %6, align 4
  %107 = load i32, i32* %8, align 4
  %108 = icmp slt i32 %106, %107
  br i1 %108, label %109, label %119

109:                                              ; preds = %105
  %110 = load i32, i32* %6, align 4
  %111 = sext i32 %110 to i64
  %112 = getelementptr inbounds [100 x %struct.m], [100 x %struct.m]* %3, i64 0, i64 %111
  %113 = getelementptr inbounds %struct.m, %struct.m* %112, i32 0, i32 0
  %114 = getelementptr inbounds [10 x i8], [10 x i8]* %113, i64 0, i64 0
  %115 = call i32 (i8*, ...) @printf(i8* getelementptr inbounds ([4 x i8], [4 x i8]* @.str.2, i64 0, i64 0), i8* %114)
  br label %116

116:                                              ; preds = %109
  %117 = load i32, i32* %6, align 4
  %118 = add nsw i32 %117, 1
  store i32 %118, i32* %6, align 4
  br label %105

119:                                              ; preds = %105
  store i32 0, i32* %6, align 4
  br label %120

120:                                              ; preds = %139, %119
  %121 = load i32, i32* %6, align 4
  %122 = load i32, i32* %5, align 4
  %123 = icmp slt i32 %121, %122
  br i1 %123, label %124, label %142

124:                                              ; preds = %120
  %125 = load i32, i32* %6, align 4
  %126 = sext i32 %125 to i64
  %127 = getelementptr inbounds [100 x %struct.m], [100 x %struct.m]* %2, i64 0, i64 %126
  %128 = getelementptr inbounds %struct.m, %struct.m* %127, i32 0, i32 1
  %129 = load i32, i32* %128, align 4
  %130 = icmp eq i32 %129, 0
  br i1 %130, label %131, label %132

131:                                              ; preds = %124
  br label %139

132:                                              ; preds = %124
  %133 = load i32, i32* %6, align 4
  %134 = sext i32 %133 to i64
  %135 = getelementptr inbounds [100 x %struct.m], [100 x %struct.m]* %2, i64 0, i64 %134
  %136 = getelementptr inbounds %struct.m, %struct.m* %135, i32 0, i32 0
  %137 = getelementptr inbounds [10 x i8], [10 x i8]* %136, i64 0, i64 0
  %138 = call i32 (i8*, ...) @printf(i8* getelementptr inbounds ([4 x i8], [4 x i8]* @.str.2, i64 0, i64 0), i8* %137)
  br label %139

139:                                              ; preds = %132, %131
  %140 = load i32, i32* %6, align 4
  %141 = add nsw i32 %140, 1
  store i32 %141, i32* %6, align 4
  br label %120

142:                                              ; preds = %120
  ret i32 0
}

declare dso_local i32 @__isoc99_scanf(i8*, ...) #1

; Function Attrs: argmemonly nounwind willreturn
declare void @llvm.memcpy.p0i8.p0i8.i64(i8* noalias nocapture writeonly, i8* noalias nocapture readonly, i64, i1 immarg) #2

declare dso_local i32 @printf(i8*, ...) #1


!llvm.module.flags = !{!0}
!llvm.ident = !{!1}

!0 = !{i32 1, !"wchar_size", i32 4}
!1 = !{!"clang version 10.0.0-4ubuntu1 "}
